; ModuleID = '9/632.c'
source_filename = "9/632.c"
target datalayout = "e-m:e-p270:32:32-p271:32:32-p272:64:64-i64:64-f80:128-n8:16:32:64-S128"
target triple = "x86_64-pc-linux-gnu"

@.str = private unnamed_addr constant [3 x i8] c"%d\00", align 1
@.str.1 = private unnamed_addr constant [6 x i8] c"%s %d\00", align 1
@.str.2 = private unnamed_addr constant [4 x i8] c"%s\0A\00", align 1

; Function Attrs: noinline nounwind uwtable
define dso_local i32 @main() #0 {
  %1 = alloca i32, align 4
  %2 = alloca i32, align 4
  %3 = alloca i32, align 4
  %4 = alloca i32, align 4
  %5 = alloca i32, align 4
  %6 = alloca [100 x i32], align 16
  %7 = alloca [100 x [10 x i8]], align 16
  %8 = alloca [10 x i8], align 1
  store i32 0, i32* %1, align 4
  %9 = call i32 (i8*, ...) @__isoc99_scanf(i8* getelementptr inbounds ([3 x i8], [3 x i8]* @.str, i64 0, i64 0), i32* %2)
  store i32 1, i32* %3, align 4
  br label %10

10:                                               ; preds = %25, %0
  %11 = load i32, i32* %3, align 4
  %12 = load i32, i32* %2, align 4
  %13 = icmp sle i32 %11, %12
  br i1 %13, label %14, label %28

14:                                               ; preds = %10
  %15 = load i32, i32* %3, align 4
  %16 = sub nsw i32 %15, 1
  %17 = sext i32 %16 to i64
  %18 = getelementptr inbounds [100 x [10 x i8]], [100 x [10 x i8]]* %7, i64 0, i64 %17
  %19 = getelementptr inbounds [10 x i8], [10 x i8]* %18, i64 0, i64 0
  %20 = load i32, i32* %3, align 4
  %21 = sub nsw i32 %20, 1
  %22 = sext i32 %21 to i64
  %23 = getelementptr inbounds [100 x i32], [100 x i32]* %6, i64 0, i64 %22
  %24 = call i32 (i8*, ...) @__isoc99_scanf(i8* getelementptr inbounds ([6 x i8], [6 x i8]* @.str.1, i64 0, i64 0), i8* %19, i32* %23)
  br label %25

25:                                               ; preds = %14
  %26 = load i32, i32* %3, align 4
  %27 = add nsw i32 %26, 1
  store i32 %27, i32* %3, align 4
  br label %10

28:                                               ; preds = %10
  store i32 1, i32* %3, align 4
  br label %29

29:                                               ; preds = %110, %28
  %30 = load i32, i32* %3, align 4
  %31 = load i32, i32* %2, align 4
  %32 = sub nsw i32 %31, 1
  %33 = icmp sle i32 %30, %32
  br i1 %33, label %34, label %113

34:                                               ; preds = %29
  %35 = load i32, i32* %2, align 4
  store i32 %35, i32* %4, align 4
  br label %36

36:                                               ; preds = %106, %34
  %37 = load i32, i32* %4, align 4
  %38 = load i32, i32* %3, align 4
  %39 = add nsw i32 %38, 1
  %40 = icmp sge i32 %37, %39
  br i1 %40, label %41, label %109

41:                                               ; preds = %36
  %42 = load i32, i32* %4, align 4
  %43 = sub nsw i32 %42, 1
  %44 = sext i32 %43 to i64
  %45 = getelementptr inbounds [100 x i32], [100 x i32]* %6, i64 0, i64 %44
  %46 = load i32, i32* %45, align 4
  %47 = load i32, i32* %4, align 4
  %48 = sub nsw i32 %47, 2
  %49 = sext i32 %48 to i64
  %50 = getelementptr inbounds [100 x i32], [100 x i32]* %6, i64 0, i64 %49
  %51 = load i32, i32* %50, align 4
  %52 = icmp sgt i32 %46, %51
  br i1 %52, label %53, label %105

53:                                               ; preds = %41
  %54 = load i32, i32* %4, align 4
  %55 = sub nsw i32 %54, 1
  %56 = sext i32 %55 to i64
  %57 = getelementptr inbounds [100 x i32], [100 x i32]* %6, i64 0, i64 %56
  %58 = load i32, i32* %57, align 4
  %59 = icmp sge i32 %58, 60
  br i1 %59, label %60, label %105

60:                                               ; preds = %53
  %61 = load i32, i32* %4, align 4
  %62 = sub nsw i32 %61, 2
  %63 = sext i32 %62 to i64
  %64 = getelementptr inbounds [100 x i32], [100 x i32]* %6, i64 0, i64 %63
  %65 = load i32, i32* %64, align 4
  store i32 %65, i32* %5, align 4
  %66 = load i32, i32* %4, align 4
  %67 = sub nsw i32 %66, 1
  %68 = sext i32 %67 to i64
  %69 = getelementptr inbounds [100 x i32], [100 x i32]* %6, i64 0, i64 %68
  %70 = load i32, i32* %69, align 4
  %71 = load i32, i32* %4, align 4
  %72 = sub nsw i32 %71, 2
  %73 = sext i32 %72 to i64
  %74 = getelementptr inbounds [100 x i32], [100 x i32]* %6, i64 0, i64 %73
  store i32 %70, i32* %74, align 4
  %75 = load i32, i32* %5, align 4
  %76 = load i32, i32* %4, align 4
  %77 = sub nsw i32 %76, 1
  %78 = sext i32 %77 to i64
  %79 = getelementptr inbounds [100 x i32], [100 x i32]* %6, i64 0, i64 %78
  store i32 %75, i32* %79, align 4
  %80 = getelementptr inbounds [10 x i8], [10 x i8]* %8, i64 0, i64 0
  %81 = load i32, i32* %4, align 4
  %82 = sub nsw i32 %81, 2
  %83 = sext i32 %82 to i64
  %84 = getelementptr inbounds [100 x [10 x i8]], [100 x [10 x i8]]* %7, i64 0, i64 %83
  %85 = getelementptr inbounds [10 x i8], [10 x i8]* %84, i64 0, i64 0
  %86 = call i8* @strcpy(i8* %80, i8* %85) #3
  %87 = load i32, i32* %4, align 4
  %88 = sub nsw i32 %87, 2
  %89 = sext i32 %88 to i64
  %90 = getelementptr inbounds [100 x [10 x i8]], [100 x [10 x i8]]* %7, i64 0, i64 %89
  %91 = getelementptr inbounds [10 x i8], [10 x i8]* %90, i64 0, i64 0
  %92 = load i32, i32* %4, align 4
  %93 = sub nsw i32 %92, 1
  %94 = sext i32 %93 to i64
  %95 = getelementptr inbounds [100 x [10 x i8]], [100 x [10 x i8]]* %7, i64 0, i64 %94
  %96 = getelementptr inbounds [10 x i8], [10 x i8]* %95, i64 0, i64 0
  %97 = call i8* @strcpy(i8* %91, i8* %96) #3
  %98 = load i32, i32* %4, align 4
  %99 = sub nsw i32 %98, 1
  %100 = sext i32 %99 to i64
  %101 = getelementptr inbounds [100 x [10 x i8]], [100 x [10 x i8]]* %7, i64 0, i64 %100
  %102 = getelementptr inbounds [10 x i8], [10 x i8]* %101, i64 0, i64 0
  %103 = getelementptr inbounds [10 x i8], [10 x i8]* %8, i64 0, i64 0
  %104 = call i8* @strcpy(i8* %102, i8* %103) #3
  br label %105

105:                                              ; preds = %60, %53, %41
  br label %106

106:                                              ; preds = %105
  %107 = load i32, i32* %4, align 4
  %108 = add nsw i32 %107, -1
  store i32 %108, i32* %4, align 4
  br label %36

109:                                              ; preds = %36
  br label %110

110:                                              ; preds = %109
  %111 = load i32, i32* %3, align 4
  %112 = add nsw i32 %111, 1
  store i32 %112, i32* %3, align 4
  br label %29

113:                                              ; preds = %29
  store i32 1, i32* %3, align 4
  br label %114

114:                                              ; preds = %125, %113
  %115 = load i32, i32* %3, align 4
  %116 = load i32, i32* %2, align 4
  %117 = icmp sle i32 %115, %116
  br i1 %117, label %118, label %128

118:                                              ; preds = %114
  %119 = load i32, i32* %3, align 4
  %120 = sub nsw i32 %119, 1
  %121 = sext i32 %120 to i64
  %122 = getelementptr inbounds [100 x [10 x i8]], [100 x [10 x i8]]* %7, i64 0, i64 %121
  %123 = getelementptr inbounds [10 x i8], [10 x i8]* %122, i64 0, i64 0
  %124 = call i32 (i8*, ...) @printf(i8* getelementptr inbounds ([4 x i8], [4 x i8]* @.str.2, i64 0, i64 0), i8* %123)
  br label %125

125:                                              ; preds = %118
  %126 = load i32, i32* %3, align 4
  %127 = add nsw i32 %126, 1
  store i32 %127, i32* %3, align 4
  br label %114

128:                                              ; preds = %114
  %129 = call i32 @getchar()
  %130 = call i32 @getchar()
  %131 = load i32, i32* %1, align 4
  ret i32 %131
}

declare dso_local i32 @__isoc99_scanf(i8*, ...) #1

; Function Attrs: nounwind
declare dso_local i8* @strcpy(i8*, i8*) #2

declare dso_local i32 @printf(i8*, ...) #1

declare dso_local i32 @getchar() #1


!llvm.module.flags = !{!0}
!llvm.ident = !{!1}

!0 = !{i32 1, !"wchar_size", i32 4}
!1 = !{!"clang version 10.0.0-4ubuntu1 "}
